Certificate:
    Data:
        Version: 3 (0x2)
        Serial Number: 2 (0x2)
    Signature Algorithm: sha1WithRSAEncryption
        Issuer: C=CN, ST=GZ, L=ZH, O=KSS, OU=KSS, CN=6litun
        Validity
            Not Before: Aug 10 04:28:12 2014 GMT
            Not After : Aug  7 04:28:12 2024 GMT
        Subject: C=CN, ST=GZ, L=ZH, O=KSS, OU=KSS, CN=6litun
        Subject Public Key Info:
            Public Key Algorithm: rsaEncryption
                Public-Key: (1024 bit)
                Modulus:
                    00:ce:3c:7c:4a:61:34:be:4f:1c:cc:f5:37:fb:60:
                    63:36:09:16:d5:5b:ed:2e:a3:95:ce:09:cd:05:6b:
                    66:5f:87:0b:90:d9:53:6c:60:3e:0e:d7:4e:dc:3f:
                    9e:f8:5b:18:58:90:e7:7f:dc:5f:e7:5d:9b:df:68:
                    2a:c8:65:b3:75:61:ce:8f:75:56:18:d0:38:f9:70:
                    46:d7:de:f6:f8:a5:1d:5d:1e:d1:58:2d:d4:e1:d5:
                    fb:77:8e:d8:0f:7e:c8:bd:8b:63:c6:e0:58:08:55:
                    43:29:f0:cf:7d:93:e4:f1:01:fe:0a:a3:9f:8c:ed:
                    c2:f4:7b:c2:cd:2c:30:43:05
                Exponent: 65537 (0x10001)
        X509v3 extensions:
            X509v3 Extended Key Usage: 
                TLS Web Client Authentication
            X509v3 Basic Constraints: 
                CA:FALSE
            X509v3 Key Usage: 
                Digital Signature, Non Repudiation, Key Encipherment
    Signature Algorithm: sha1WithRSAEncryption
         2e:d8:92:28:23:52:9b:32:81:76:9c:c4:79:db:f7:23:0f:36:
         b5:60:ba:5e:77:73:47:ab:38:6e:18:df:2b:aa:fe:28:5c:72:
         b6:cf:61:f0:de:54:69:08:e7:f8:c5:ba:ef:b3:e9:e6:f3:0f:
         cf:1f:e3:bc:97:01:58:91:39:1f:d4:34:15:61:e0:1e:0b:2f:
         f4:6c:0b:f6:1e:ca:d6:5b:89:f3:0f:34:0a:53:31:ea:92:6f:
         e4:98:52:9a:21:e2:23:dc:9d:f1:2f:6c:e0:ff:ae:7f:24:87:
         fa:4a:42:e7:65:45:ac:4a:5a:ea:75:fa:96:72:7b:5d:6f:c3:
         08:39
-----BEGIN CERTIFICATE-----
MIICTTCCAbagAwIBAgIBAjANBgkqhkiG9w0BAQUFADBUMQswCQYDVQQGEwJDTjEL
MAkGA1UECAwCR1oxCzAJBgNVBAcMAlpIMQwwCgYDVQQKDANLU1MxDDAKBgNVBAsM
A0tTUzEPMA0GA1UEAwwGNmxpdHVuMB4XDTE0MDgxMDA0MjgxMloXDTI0MDgwNzA0
MjgxMlowVDELMAkGA1UEBhMCQ04xCzAJBgNVBAgMAkdaMQswCQYDVQQHDAJaSDEM
MAoGA1UECgwDS1NTMQwwCgYDVQQLDANLU1MxDzANBgNVBAMMBjZsaXR1bjCBnzAN
BgkqhkiG9w0BAQEFAAOBjQAwgYkCgYEAzjx8SmE0vk8czPU3+2BjNgkW1VvtLqOV
zgnNBWtmX4cLkNlTbGA+DtdO3D+e+FsYWJDnf9xf512b32gqyGWzdWHOj3VWGNA4
+XBG1972+KUdXR7RWC3U4dX7d47YD37IvYtjxuBYCFVDKfDPfZPk8QH+CqOfjO3C
9HvCzSwwQwUCAwEAAaMvMC0wEwYDVR0lBAwwCgYIKwYBBQUHAwIwCQYDVR0TBAIw
ADALBgNVHQ8EBAMCBeAwDQYJKoZIhvcNAQEFBQADgYEALtiSKCNSmzKBdpzEedv3
Iw82tWC6XndzR6s4bhjfK6r+KFxyts9h8N5UaQjn+MW677Pp5vMPzx/jvJcBWJE5
H9Q0FWHgHgsv9GwL9h7K1luJ8w80ClMx6pJv5JhSmiHiI9yd8S9s4P+ufySH+kpC
52VFrEpa6nX6lnJ7XW/DCDk=
-----END CERTIFICATE-----
