Certificate:
    Data:
        Version: 3 (0x2)
        Serial Number: 4 (0x4)
        Signature Algorithm: sha1WithRSAEncryption
        Issuer: C=CN, ST=GZ, L=ZH, O=KSS, OU=KSS, CN=taiyouxi
        Validity
            Not Before: Dec  2 05:49:43 2015 GMT
            Not After : Nov 29 05:49:43 2025 GMT
        Subject: C=CN, ST=GZ, L=ZH, O=KSS, OU=KSS, CN=taiyouxi
        Subject Public Key Info:
            Public Key Algorithm: rsaEncryption
            RSA Public Key: (2048 bit)
                Modulus (2048 bit):
                    00:96:1b:07:a8:2b:ca:ae:bb:6f:ea:33:f6:fc:7f:
                    b6:ae:21:b8:8b:ff:11:c3:92:12:60:2b:8d:05:9c:
                    8e:69:a9:7e:1d:75:64:3b:e4:73:66:b1:9d:a7:ab:
                    8f:37:1b:3c:3d:6e:7e:41:5f:2f:3a:e4:58:55:e1:
                    1f:7a:8d:cd:ee:9a:b1:bc:87:4b:85:59:60:a1:58:
                    22:a6:1c:27:a8:05:84:c5:df:97:e6:7a:8e:53:15:
                    41:f4:e1:14:68:07:34:e3:6a:66:88:f9:7d:af:21:
                    19:e6:d5:9b:74:d9:4c:d9:22:17:9e:bf:1e:cf:b4:
                    e3:b0:be:c5:15:74:66:1e:da:09:1f:3d:57:91:e1:
                    43:03:72:cb:5a:d0:53:f0:6a:ab:b9:f5:92:fa:44:
                    3f:25:3d:70:42:84:f9:b5:9a:d9:52:f2:9c:b9:67:
                    e3:a7:d0:76:0b:34:c5:d7:7b:6e:27:cb:b4:9c:4b:
                    0c:d4:b0:d3:51:eb:bc:61:1f:73:c4:5d:51:61:e3:
                    34:63:f8:b7:72:ee:cc:6b:f1:06:6c:8f:3e:5e:cb:
                    dc:c7:28:87:03:4f:4f:26:8e:fa:f1:fc:40:31:c3:
                    cd:d1:44:f9:de:6b:d3:c0:01:5e:a5:72:c2:9a:dc:
                    ff:b7:cc:39:8a:75:39:1c:89:03:20:88:6a:d2:a3:
                    d1:69
                Exponent: 65537 (0x10001)
        X509v3 extensions:
            X509v3 Extended Key Usage: 
                TLS Web Client Authentication
            X509v3 Basic Constraints: 
                CA:FALSE
            X509v3 Key Usage: 
                Digital Signature, Non Repudiation, Key Encipherment
    Signature Algorithm: sha1WithRSAEncryption
        d4:47:92:00:53:56:ae:33:5e:09:9f:21:99:30:0c:6e:d6:31:
        be:a7:a4:b7:c7:dc:ce:7b:91:25:17:a2:6d:5e:a8:79:35:b6:
        85:2a:44:73:26:d8:7d:78:3c:f3:0d:a8:79:04:32:c4:98:ab:
        1d:16:9d:bb:68:1f:cd:75:e1:b4:a8:ae:c5:0b:f3:81:7b:21:
        cb:6f:cb:68:7b:85:9d:ed:74:ec:3f:62:db:0d:2d:c2:fd:79:
        a7:3a:62:5a:8c:93:10:f0:2d:d5:b0:b9:fc:0a:39:6d:33:75:
        5e:1c:ca:ca:6a:a6:35:23:82:6a:ac:2b:1c:e7:30:d6:dd:fe:
        53:05:73:fa:bc:64:14:57:c8:b7:c1:8e:1d:10:07:35:2c:58:
        9d:3f:7d:c0:a4:fb:15:2a:d2:3d:30:12:42:df:22:04:4e:ea:
        2c:7c:15:57:f9:dd:aa:5b:cf:f3:38:e1:23:ee:ef:19:78:0e:
        b8:97:cd:5d:9b:6a:f3:3f:be:b5:3c:14:dc:5a:67:ff:d1:67:
        e5:1f:d1:58:51:d7:4f:5f:a8:cb:8e:36:d0:f9:57:72:2a:f7:
        54:a4:76:6a:23:06:a3:13:cf:8f:a0:a4:4f:5d:26:a0:1e:61:
        f2:ce:c6:bf:e4:3d:21:97:22:69:c7:30:1b:67:d2:c2:7e:ba:
        d1:17:7c:41
-----BEGIN CERTIFICATE-----
MIIDVjCCAj6gAwIBAgIBBDANBgkqhkiG9w0BAQUFADBWMQswCQYDVQQGEwJDTjEL
MAkGA1UECBMCR1oxCzAJBgNVBAcTAlpIMQwwCgYDVQQKEwNLU1MxDDAKBgNVBAsT
A0tTUzERMA8GA1UEAxMIdGFpeW91eGkwHhcNMTUxMjAyMDU0OTQzWhcNMjUxMTI5
MDU0OTQzWjBWMQswCQYDVQQGEwJDTjELMAkGA1UECBMCR1oxCzAJBgNVBAcTAlpI
MQwwCgYDVQQKEwNLU1MxDDAKBgNVBAsTA0tTUzERMA8GA1UEAxMIdGFpeW91eGkw
ggEiMA0GCSqGSIb3DQEBAQUAA4IBDwAwggEKAoIBAQCWGweoK8quu2/qM/b8f7au
IbiL/xHDkhJgK40FnI5pqX4ddWQ75HNmsZ2nq483Gzw9bn5BXy865FhV4R96jc3u
mrG8h0uFWWChWCKmHCeoBYTF35fmeo5TFUH04RRoBzTjamaI+X2vIRnm1Zt02UzZ
Iheevx7PtOOwvsUVdGYe2gkfPVeR4UMDcsta0FPwaqu59ZL6RD8lPXBChPm1mtlS
8py5Z+On0HYLNMXXe24ny7ScSwzUsNNR67xhH3PEXVFh4zRj+Ldy7sxr8QZsjz5e
y9zHKIcDT08mjvrx/EAxw83RRPnea9PAAV6lcsKa3P+3zDmKdTkciQMgiGrSo9Fp
AgMBAAGjLzAtMBMGA1UdJQQMMAoGCCsGAQUFBwMCMAkGA1UdEwQCMAAwCwYDVR0P
BAQDAgXgMA0GCSqGSIb3DQEBBQUAA4IBAQDUR5IAU1auM14JnyGZMAxu1jG+p6S3
x9zOe5ElF6JtXqh5NbaFKkRzJth9eDzzDah5BDLEmKsdFp27aB/NdeG0qK7FC/OB
eyHLb8toe4Wd7XTsP2LbDS3C/XmnOmJajJMQ8C3VsLn8CjltM3VeHMrKaqY1I4Jq
rCsc5zDW3f5TBXP6vGQUV8i3wY4dEAc1LFidP33ApPsVKtI9MBJC3yIETuosfBVX
+d2qW8/zOOEj7u8ZeA64l81dm2rzP761PBTcWmf/0WflH9FYUddPX6jLjjbQ+Vdy
KvdUpHZqIwajE8+PoKRPXSagHmHyzsa/5D0hlyJpxzAbZ9LCfrrRF3xB
-----END CERTIFICATE-----
