Certificate:
    Data:
        Version: 3 (0x2)
        Serial Number: 12 (0xc)
    Signature Algorithm: sha1WithRSAEncryption
        Issuer: C=CN, ST=GZ, L=ZH, O=KSS, OU=KSS, CN=taiyouxi
        Validity
            Not Before: Jul 20 07:52:45 2017 GMT
            Not After : Jul 18 07:52:45 2027 GMT
        Subject: C=CN, ST=GZ, L=ZH, O=KSS, OU=KSS, CN=taiyouxi
        Subject Public Key Info:
            Public Key Algorithm: rsaEncryption
                Public-Key: (1024 bit)
                Modulus:
                    00:b4:f1:31:b7:4d:c1:a8:10:c3:f0:b5:81:62:f2:
                    a6:9a:f5:e4:ab:7a:25:c8:19:0a:8e:18:19:02:7b:
                    95:2c:14:1f:11:e9:7a:14:48:75:b8:70:c9:56:3b:
                    a8:f7:e0:19:87:f8:9b:2f:b1:8b:cb:3b:2b:79:f2:
                    ff:b0:cc:f8:8e:ad:83:18:f7:e8:a9:2c:2b:26:62:
                    18:b3:82:b9:7e:3c:79:fe:64:8d:8e:75:68:c8:32:
                    40:11:ab:c4:85:25:c8:e8:57:43:f0:72:aa:52:02:
                    cd:a7:0e:54:54:f7:1f:3d:b9:a7:b1:6d:01:42:af:
                    d6:27:fd:0a:ae:25:e0:ea:05
                Exponent: 65537 (0x10001)
        X509v3 extensions:
            X509v3 Extended Key Usage: 
                TLS Web Client Authentication
            X509v3 Basic Constraints: 
                CA:FALSE
            X509v3 Key Usage: 
                Digital Signature, Non Repudiation, Key Encipherment
    Signature Algorithm: sha1WithRSAEncryption
         74:a6:17:15:e2:2b:ab:2b:fc:4d:2e:5a:b4:f8:f1:cf:17:32:
         a7:ee:d5:78:b4:f4:1d:68:c6:ef:4a:b3:9f:6c:31:19:56:57:
         c0:d1:40:b8:b9:28:8e:0e:d2:de:7d:6b:24:3f:dc:17:6f:45:
         9c:8a:6e:06:7e:d0:83:d2:4f:35:e6:76:5b:43:6e:42:96:a0:
         0f:dd:e0:d8:12:86:53:39:71:63:a5:54:b4:03:25:15:f9:88:
         80:80:66:7e:d8:a4:10:26:8d:09:ea:03:c2:9d:76:a2:f5:c7:
         5f:27:12:d4:65:5a:9a:30:96:24:77:c4:1d:83:b5:c0:ec:a2:
         c5:5f:bb:e2:05:2b:2e:8b:51:36:3a:45:ce:71:c7:e7:23:d9:
         b8:b7:db:10:e0:4c:f4:1a:c9:fe:1e:ba:3d:fc:79:20:e2:f7:
         d1:58:83:fa:35:9d:08:ba:58:32:47:6c:31:f5:02:eb:a6:cc:
         00:30:0e:a8:86:fc:60:4e:92:15:ed:c7:db:b6:94:c4:c8:05:
         68:ac:8e:a3:86:a1:f3:19:e7:d6:8f:96:93:b2:59:d4:6d:53:
         3b:60:57:78:6b:a3:62:c0:09:d4:13:e7:15:2b:4d:b8:b0:07:
         c6:14:7d:61:43:61:6f:f8:03:81:28:ac:49:9b:55:d4:5e:6a:
         6e:ba:4d:39
-----BEGIN CERTIFICATE-----
MIIC0jCCAbqgAwIBAgIBDDANBgkqhkiG9w0BAQUFADBWMQswCQYDVQQGEwJDTjEL
MAkGA1UECBMCR1oxCzAJBgNVBAcTAlpIMQwwCgYDVQQKEwNLU1MxDDAKBgNVBAsT
A0tTUzERMA8GA1UEAxMIdGFpeW91eGkwHhcNMTcwNzIwMDc1MjQ1WhcNMjcwNzE4
MDc1MjQ1WjBWMQswCQYDVQQGEwJDTjELMAkGA1UECAwCR1oxCzAJBgNVBAcMAlpI
MQwwCgYDVQQKDANLU1MxDDAKBgNVBAsMA0tTUzERMA8GA1UEAwwIdGFpeW91eGkw
gZ8wDQYJKoZIhvcNAQEBBQADgY0AMIGJAoGBALTxMbdNwagQw/C1gWLyppr15Kt6
JcgZCo4YGQJ7lSwUHxHpehRIdbhwyVY7qPfgGYf4my+xi8s7K3ny/7DM+I6tgxj3
6KksKyZiGLOCuX48ef5kjY51aMgyQBGrxIUlyOhXQ/ByqlICzacOVFT3Hz25p7Ft
AUKv1if9Cq4l4OoFAgMBAAGjLzAtMBMGA1UdJQQMMAoGCCsGAQUFBwMCMAkGA1Ud
EwQCMAAwCwYDVR0PBAQDAgXgMA0GCSqGSIb3DQEBBQUAA4IBAQB0phcV4iurK/xN
Llq0+PHPFzKn7tV4tPQdaMbvSrOfbDEZVlfA0UC4uSiODtLefWskP9wXb0Wcim4G
ftCD0k815nZbQ25ClqAP3eDYEoZTOXFjpVS0AyUV+YiAgGZ+2KQQJo0J6gPCnXai
9cdfJxLUZVqaMJYkd8Qdg7XA7KLFX7viBSsui1E2OkXOccfnI9m4t9sQ4Ez0Gsn+
Hro9/Hkg4vfRWIP6NZ0IulgyR2wx9QLrpswAMA6ohvxgTpIV7cfbtpTEyAVorI6j
hqHzGefWj5aTslnUbVM7YFd4a6NiwAnUE+cVK024sAfGFH1hQ2Fv+AOBKKxJm1XU
Xmpuuk05
-----END CERTIFICATE-----
