Certificate:
    Data:
        Version: 3 (0x2)
        Serial Number: 3 (0x3)
        Signature Algorithm: sha1WithRSAEncryption
        Issuer: C=CN, ST=GZ, L=ZH, O=KSS, OU=KSS, CN=taiyouxi
        Validity
            Not Before: Dec  2 05:49:38 2015 GMT
            Not After : Nov 29 05:49:38 2025 GMT
        Subject: C=CN, ST=GZ, L=ZH, O=KSS, OU=KSS, CN=taiyouxi
        Subject Public Key Info:
            Public Key Algorithm: rsaEncryption
            RSA Public Key: (2048 bit)
                Modulus (2048 bit):
                    00:ad:cf:4f:86:3c:d8:5a:ec:7d:0f:32:a2:24:3d:
                    5f:fe:46:aa:cd:e8:01:df:47:62:b1:bf:88:25:93:
                    4c:6c:f2:f5:41:b5:f0:99:f7:fe:64:95:24:7e:7c:
                    42:80:69:b2:c0:08:43:de:8b:ed:e5:e2:8a:1a:e9:
                    6d:2c:ab:a8:82:f7:3b:24:a9:c5:20:c8:44:1f:31:
                    60:6b:08:4d:3e:fc:8c:68:f3:8c:fe:b7:fa:b3:df:
                    ef:7c:d5:78:18:02:8f:46:bc:ae:22:bc:4e:b8:dd:
                    8b:f6:f1:ec:7e:d5:9d:75:10:29:4a:7a:e8:f4:11:
                    52:1e:48:27:27:a0:58:cf:a1:e8:0b:1d:89:e3:78:
                    00:e8:86:ce:f0:83:07:56:4a:40:14:e6:5b:c3:ed:
                    b2:c3:5a:3c:9c:41:9c:4d:fb:c8:3d:af:a5:02:3e:
                    41:be:89:1f:43:8e:23:a4:56:bd:dd:d7:ac:76:4f:
                    28:25:b3:63:80:b3:3a:2f:91:08:ce:eb:44:67:df:
                    3d:73:41:a0:30:be:7e:1a:83:8c:7e:2e:4e:05:9c:
                    e1:5c:81:5c:87:8c:bb:9e:41:5d:0e:a3:f2:7f:01:
                    32:ab:ad:39:8d:b4:9a:5b:2a:d6:20:33:6e:07:16:
                    6d:9b:21:c1:c3:e3:c1:aa:30:66:b9:fd:31:b6:1f:
                    64:cb
                Exponent: 65537 (0x10001)
        X509v3 extensions:
            X509v3 Basic Constraints: 
                CA:FALSE
            Netscape Comment: 
                OpenSSL Generated Certificate
            X509v3 Subject Key Identifier: 
                FF:9E:18:13:DC:08:54:83:43:8F:00:13:01:D6:56:50:05:79:61:C7
            X509v3 Authority Key Identifier: 
                DirName:/C=CN/ST=GZ/L=ZH/O=KSS/OU=KSS/CN=taiyouxi
                serial:EE:15:10:BC:AC:05:44:1D

    Signature Algorithm: sha1WithRSAEncryption
        75:d0:09:dd:25:cb:70:fd:fb:e6:b5:1f:9a:15:69:17:32:de:
        25:81:f7:4d:23:6c:1f:cc:e1:a2:c0:d6:57:77:2f:d1:61:e3:
        7a:f8:64:f1:21:f9:49:30:80:66:08:54:8c:54:61:5f:11:62:
        6a:2d:29:0f:72:ac:24:a0:d0:6f:26:a2:e0:aa:49:f3:63:24:
        97:6a:41:bc:ae:20:5d:88:38:26:7f:7f:2c:13:80:1a:dd:73:
        39:4f:a5:18:70:6b:85:e8:2a:6e:1f:41:d9:8d:98:bd:20:cf:
        5d:4c:50:ca:95:aa:b9:f5:8a:f9:4f:6e:02:d2:6b:d9:f0:1d:
        d3:5a:92:b4:19:ce:40:46:2e:2e:b0:a4:3a:bc:38:e5:94:e5:
        9e:5f:87:94:97:c1:43:1b:aa:13:a7:36:2d:88:b6:93:34:0d:
        3d:a0:43:c9:1d:15:da:65:71:f0:f3:f1:05:7e:79:bd:bf:f6:
        b6:d5:c3:de:00:16:aa:65:61:a2:63:40:41:b5:c6:50:07:ef:
        aa:98:cd:04:e2:32:ef:b4:91:57:5b:58:8b:da:60:b7:68:45:
        a6:2a:23:86:fa:01:10:f8:46:a7:11:c1:4e:40:26:49:29:f2:
        64:96:61:9b:03:37:02:c2:67:4c:e6:36:5a:8d:0e:5b:9c:a7:
        12:f8:d6:81
-----BEGIN CERTIFICATE-----
MIID9TCCAt2gAwIBAgIBAzANBgkqhkiG9w0BAQUFADBWMQswCQYDVQQGEwJDTjEL
MAkGA1UECBMCR1oxCzAJBgNVBAcTAlpIMQwwCgYDVQQKEwNLU1MxDDAKBgNVBAsT
A0tTUzERMA8GA1UEAxMIdGFpeW91eGkwHhcNMTUxMjAyMDU0OTM4WhcNMjUxMTI5
MDU0OTM4WjBWMQswCQYDVQQGEwJDTjELMAkGA1UECBMCR1oxCzAJBgNVBAcTAlpI
MQwwCgYDVQQKEwNLU1MxDDAKBgNVBAsTA0tTUzERMA8GA1UEAxMIdGFpeW91eGkw
ggEiMA0GCSqGSIb3DQEBAQUAA4IBDwAwggEKAoIBAQCtz0+GPNha7H0PMqIkPV/+
RqrN6AHfR2Kxv4glk0xs8vVBtfCZ9/5klSR+fEKAabLACEPei+3l4ooa6W0sq6iC
9zskqcUgyEQfMWBrCE0+/Ixo84z+t/qz3+981XgYAo9GvK4ivE643Yv28ex+1Z11
EClKeuj0EVIeSCcnoFjPoegLHYnjeADohs7wgwdWSkAU5lvD7bLDWjycQZxN+8g9
r6UCPkG+iR9DjiOkVr3d16x2Tygls2OAszovkQjO60Rn3z1zQaAwvn4ag4x+Lk4F
nOFcgVyHjLueQV0Oo/J/ATKrrTmNtJpbKtYgM24HFm2bIcHD48GqMGa5/TG2H2TL
AgMBAAGjgc0wgcowCQYDVR0TBAIwADAsBglghkgBhvhCAQ0EHxYdT3BlblNTTCBH
ZW5lcmF0ZWQgQ2VydGlmaWNhdGUwHQYDVR0OBBYEFP+eGBPcCFSDQ48AEwHWVlAF
eWHHMHAGA1UdIwRpMGehWqRYMFYxCzAJBgNVBAYTAkNOMQswCQYDVQQIEwJHWjEL
MAkGA1UEBxMCWkgxDDAKBgNVBAoTA0tTUzEMMAoGA1UECxMDS1NTMREwDwYDVQQD
Ewh0YWl5b3V4aYIJAO4VELysBUQdMA0GCSqGSIb3DQEBBQUAA4IBAQB10AndJctw
/fvmtR+aFWkXMt4lgfdNI2wfzOGiwNZXdy/RYeN6+GTxIflJMIBmCFSMVGFfEWJq
LSkPcqwkoNBvJqLgqknzYySXakG8riBdiDgmf38sE4Aa3XM5T6UYcGuF6CpuH0HZ
jZi9IM9dTFDKlaq59Yr5T24C0mvZ8B3TWpK0Gc5ARi4usKQ6vDjllOWeX4eUl8FD
G6oTpzYtiLaTNA09oEPJHRXaZXHw8/EFfnm9v/a21cPeABaqZWGiY0BBtcZQB++q
mM0E4jLvtJFXW1iL2mC3aEWmKiOG+gEQ+EanEcFOQCZJKfJklmGbAzcCwmdM5jZa
jQ5bnKcS+NaB
-----END CERTIFICATE-----
